target datalayout = "e-m:e-p270:32:32-p271:32:32-p272:64:64-i64:64-i128:128-f80:128-n8:16:32:64-S128"
target triple = "x86_64-pc-linux-gnu"

; Function Attrs: nounwind uwtable
define internal i32 @zueci_gb2312_u(ptr noundef %0, i32 noundef %1, i32 noundef %2, ptr noundef %3) #0 {
  %5 = alloca i32, align 4
  %6 = alloca ptr, align 8
  %7 = alloca i32, align 4
  %8 = alloca i32, align 4
  %9 = alloca ptr, align 8
  %10 = alloca i8, align 1
  %11 = alloca i8, align 1
  %12 = alloca i32, align 4
  %13 = alloca i32, align 4
  store ptr %0, ptr %6, align 8
  store i32 %1, ptr %7, align 4
  store i32 %2, ptr %8, align 4
  store ptr %3, ptr %9, align 8
  %14 = load ptr, ptr %6, align 8
  %15 = getelementptr inbounds i8, ptr %14, i64 0
  %16 = load i8, ptr %15, align 1
  store i8 %16, ptr %10, align 1
  %17 = load i8, ptr %10, align 1
  %18 = zext i8 %17 to i32
  %19 = icmp slt i32 %18, 128
  br i1 %19, label %20, label %24

20:                                               ; preds = %4
  %21 = load i8, ptr %10, align 1
  %22 = zext i8 %21 to i32
  %23 = load ptr, ptr %9, align 8
  store i32 %22, ptr %23, align 4
  store i32 1, ptr %5, align 4
  br label %81

24:                                               ; preds = %4
  %25 = load i32, ptr %7, align 4
  %26 = icmp ult i32 %25, 2
  br i1 %26, label %43, label %27

27:                                               ; preds = %24
  %28 = load i8, ptr %10, align 1
  %29 = zext i8 %28 to i32
  %30 = icmp slt i32 %29, 161
  br i1 %30, label %43, label %31

31:                                               ; preds = %27
  %32 = load i8, ptr %10, align 1
  %33 = zext i8 %32 to i32
  %34 = icmp sgt i32 %33, 169
  br i1 %34, label %35, label %39

35:                                               ; preds = %31
  %36 = load i8, ptr %10, align 1
  %37 = zext i8 %36 to i32
  %38 = icmp slt i32 %37, 176
  br i1 %38, label %43, label %39

39:                                               ; preds = %35, %31
  %40 = load i8, ptr %10, align 1
  %41 = zext i8 %40 to i32
  %42 = icmp sgt i32 %41, 247
  br i1 %42, label %43, label %44

43:                                               ; preds = %39, %35, %27, %24
  store i32 0, ptr %5, align 4
  br label %81

44:                                               ; preds = %39
  %45 = load ptr, ptr %6, align 8
  %46 = getelementptr inbounds i8, ptr %45, i64 1
  %47 = load i8, ptr %46, align 1
  store i8 %47, ptr %11, align 1
  %48 = load i8, ptr %11, align 1
  %49 = zext i8 %48 to i32
  %50 = icmp slt i32 %49, 161
  br i1 %50, label %55, label %51

51:                                               ; preds = %44
  %52 = load i8, ptr %11, align 1
  %53 = zext i8 %52 to i32
  %54 = icmp eq i32 %53, 255
  br i1 %54, label %55, label %56

55:                                               ; preds = %51, %44
  store i32 0, ptr %5, align 4
  br label %81

56:                                               ; preds = %51
  %57 = load i8, ptr %10, align 1
  %58 = zext i8 %57 to i32
  %59 = sub nsw i32 %58, 161
  %60 = load i8, ptr %10, align 1
  %61 = zext i8 %60 to i32
  %62 = icmp sgt i32 %61, 169
  %63 = zext i1 %62 to i32
  %64 = mul nsw i32 %63, 6
  %65 = sub nsw i32 %59, %64
  %66 = mul nsw i32 94, %65
  %67 = load i8, ptr %11, align 1
  %68 = zext i8 %67 to i32
  %69 = add nsw i32 %66, %68
  %70 = sub nsw i32 %69, 161
  store i32 %70, ptr %12, align 4
  %71 = load i32, ptr %12, align 4
  %72 = sext i32 %71 to i64
  %73 = getelementptr inbounds [7614 x i16], ptr @zueci_gb2312_mb_u, i64 0, i64 %72
  %74 = load i16, ptr %73, align 2
  %75 = zext i16 %74 to i32
  store i32 %75, ptr %13, align 4
  %76 = icmp ne i32 %75, 0
  br i1 %76, label %77, label %80

77:                                               ; preds = %56
  %78 = load i32, ptr %13, align 4
  %79 = load ptr, ptr %9, align 8
  store i32 %78, ptr %79, align 4
  store i32 2, ptr %5, align 4
  br label %81

80:                                               ; preds = %56
  store i32 0, ptr %5, align 4
  br label %81

81:                                               ; preds = %80, %77, %55, %43, %20
  %82 = load i32, ptr %5, align 4
  ret i32 %82
}