; Function Attrs: mustprogress nofree norecurse nosync nounwind willreturn memory(argmem: readwrite) uwtable
define internal noundef i32 @zueci_gb2312_u(ptr nocapture noundef readonly %0, i32 noundef %1, i32 %2, ptr nocapture noundef writeonly %3) #6 {
  %5 = load i8, ptr %0, align 1
  %6 = zext i8 %5 to i32
  %7 = icmp sgt i8 %5, -1
  br i1 %7, label %.sink.split, label %8

8:                                                ; preds = %4
  %9 = icmp ult i32 %1, 2
  %10 = icmp ult i8 %5, -95
  %or.cond = or i1 %9, %10
  br i1 %or.cond, label %29, label %11

11:                                               ; preds = %8
  %12 = icmp ugt i8 %5, -87
  switch i8 %5, label %13 [
    i8 -1, label %29
    i8 -2, label %29
    i8 -3, label %29
    i8 -4, label %29
    i8 -5, label %29
    i8 -6, label %29
    i8 -7, label %29
    i8 -8, label %29
    i8 -81, label %29
    i8 -82, label %29
    i8 -83, label %29
    i8 -84, label %29
    i8 -85, label %29
    i8 -86, label %29
  ]

13:                                               ; preds = %11
  %14 = getelementptr inbounds i8, ptr %0, i64 1
  %15 = load i8, ptr %14, align 1
  %16 = add i8 %15, 1
  %or.cond11 = icmp ult i8 %16, -94
  br i1 %or.cond11, label %29, label %17

17:                                               ; preds = %13
  %18 = zext i8 %15 to i32
  %19 = add nsw i32 %6, -161
  %.neg = select i1 %12, i32 -6, i32 0
  %20 = add nsw i32 %19, %.neg
  %21 = mul nsw i32 %20, 94
  %22 = add nsw i32 %21, -161
  %23 = add nsw i32 %22, %18
  %24 = sext i32 %23 to i64
  %25 = getelementptr inbounds [7614 x i16], ptr @zueci_gb2312_mb_u, i64 0, i64 %24
  %26 = load i16, ptr %25, align 2
  %.not = icmp eq i16 %26, 0
  br i1 %.not, label %29, label %27

27:                                               ; preds = %17
  %28 = zext i16 %26 to i32
  br label %.sink.split

.sink.split:                                      ; preds = %4, %27
  %.sink = phi i32 [ %28, %27 ], [ %6, %4 ]
  %.0.ph = phi i32 [ 2, %27 ], [ 1, %4 ]
  store i32 %.sink, ptr %3, align 4
  br label %29

29:                                               ; preds = %.sink.split, %17, %13, %8, %11, %11, %11, %11, %11, %11, %11, %11, %11, %11, %11, %11, %11, %11
  %.0 = phi i32 [ 0, %11 ], [ 0, %11 ], [ 0, %11 ], [ 0, %11 ], [ 0, %11 ], [ 0, %11 ], [ 0, %11 ], [ 0, %11 ], [ 0, %11 ], [ 0, %11 ], [ 0, %11 ], [ 0, %11 ], [ 0, %11 ], [ 0, %11 ], [ 0, %8 ], [ 0, %13 ], [ 0, %17 ], [ %.0.ph, %.sink.split ]
  ret i32 %.0
}